target datalayout = "e-m:e-p270:32:32-p271:32:32-p272:64:64-i64:64-i128:128-f80:128-n8:16:32:64-S128"
target triple = "x86_64-pc-linux-gnu"

@.str.222 = private unnamed_addr constant [13 x i8] c"noisy delete\00", align 1

; Function Attrs: mustprogress nounwind uwtable
define internal void @_ZZ35test_submodule_factory_constructorsRN8pybind117module_EEN10NoisyAllocdlEPvm(ptr noundef %0, i64 noundef %1) #0 align 2 personality ptr @__gxx_personality_v0 {
  %3 = alloca ptr, align 8
  %4 = alloca i64, align 8
  store ptr %0, ptr %3, align 8
  store i64 %1, ptr %4, align 8
  invoke void @_ZN8pybind115printILNS_19return_value_policyE1EJRA13_KcEEEvDpOT0_(ptr noundef nonnull align 1 dereferenceable(13) @.str.222)
          to label %5 unwind label %7

5:                                                ; preds = %2
  %6 = load ptr, ptr %3, align 8
  call void @_ZdlPv(ptr noundef %6) #16
  ret void

7:                                                ; preds = %2
  %8 = landingpad { ptr, i32 }
          catch ptr null
  %9 = extractvalue { ptr, i32 } %8, 0
  call void @__clang_call_terminate(ptr %9) #20
  unreachable
}