; Function Attrs: mustprogress nounwind uwtable
define internal fastcc void @_ZZ35test_submodule_factory_constructorsRN8pybind117module_EEN10NoisyAllocdlEPvm(ptr noundef %0) unnamed_addr #0 align 2 personality ptr @__gxx_personality_v0 {
  invoke void @_ZN8pybind115printILNS_19return_value_policyE1EJRA13_KcEEEvDpOT0_(ptr noundef nonnull align 1 dereferenceable(13) @.str.222)
          to label %2 unwind label %3

2:                                                ; preds = %1
  tail call void @_ZdlPv(ptr noundef %0) #23
  ret void

3:                                                ; preds = %1
  %4 = landingpad { ptr, i32 }
          catch ptr null
  %5 = extractvalue { ptr, i32 } %4, 0
  tail call void @__clang_call_terminate(ptr %5) #24
  unreachable
}